(lp0
(lp1
(lp2
I1
aI1
aa(lp3
I1
aI2
aa(lp4
I1
aI3
aa(lp5
I1
aI4
aa(lp6
I1
aI5
aa(lp7
I1
aI6
aa(lp8
I1
aI7
aa(lp9
I1
aI8
aa(lp10
I1
aI9
aaa(lp11
(lp12
I2
aI1
aa(lp13
I2
aI2
aa(lp14
I2
aI3
aa(lp15
I2
aI4
aa(lp16
I2
aI5
aa(lp17
I2
aI6
aa(lp18
I2
aI7
aa(lp19
I2
aI8
aa(lp20
I2
aI9
aaa(lp21
(lp22
I3
aI1
aa(lp23
I3
aI2
aa(lp24
I3
aI3
aa(lp25
I3
aI4
aa(lp26
I3
aI5
aa(lp27
I3
aI6
aa(lp28
I3
aI7
aa(lp29
I3
aI8
aa(lp30
I3
aI9
aaa(lp31
(lp32
I4
aI1
aa(lp33
I4
aI2
aa(lp34
I4
aI3
aa(lp35
I4
aI4
aa(lp36
I4
aI5
aa(lp37
I4
aI6
aa(lp38
I4
aI7
aa(lp39
I4
aI8
aa(lp40
I4
aI9
aaa(lp41
(lp42
I5
aI1
aa(lp43
I5
aI2
aa(lp44
I5
aI3
aa(lp45
I5
aI4
aa(lp46
I5
aI5
aa(lp47
I5
aI6
aa(lp48
I5
aI7
aa(lp49
I5
aI8
aa(lp50
I5
aI9
aaa(lp51
(lp52
I6
aI1
aa(lp53
I6
aI2
aa(lp54
I6
aI3
aa(lp55
I6
aI4
aa(lp56
I6
aI5
aa(lp57
I6
aI6
aa(lp58
I6
aI7
aa(lp59
I6
aI8
aa(lp60
I6
aI9
aaa(lp61
(lp62
I7
aI1
aa(lp63
I7
aI2
aa(lp64
I7
aI3
aa(lp65
I7
aI4
aa(lp66
I7
aI5
aa(lp67
I7
aI6
aa(lp68
I7
aI7
aa(lp69
I7
aI8
aa(lp70
I7
aI9
aaa(lp71
(lp72
I8
aI1
aa(lp73
I8
aI2
aa(lp74
I8
aI3
aa(lp75
I8
aI4
aa(lp76
I8
aI5
aa(lp77
I8
aI6
aa(lp78
I8
aI7
aa(lp79
I8
aI8
aa(lp80
I8
aI9
aaa(lp81
(lp82
I9
aI1
aa(lp83
I9
aI2
aa(lp84
I9
aI3
aa(lp85
I9
aI4
aa(lp86
I9
aI5
aa(lp87
I9
aI6
aa(lp88
I9
aI7
aa(lp89
I9
aI8
aa(lp90
I9
aI9
aaa.